target datalayout = "e-m:e-p270:32:32-p271:32:32-p272:64:64-i64:64-i128:128-f80:128-n8:16:32:64-S128"
target triple = "x86_64-pc-linux-gnu"

%struct.Py_complex = type { double, double }

; Function Attrs: inlinehint nounwind uwtable
define internal void @_Py_ADJUST_ERANGE2(double noundef %0, double noundef %1) #6 {
  %3 = alloca double, align 8
  %4 = alloca double, align 8
  store double %0, ptr %3, align 8, !tbaa !10
  store double %1, ptr %4, align 8, !tbaa !10
  %5 = load double, ptr %3, align 8, !tbaa !10
  %6 = fcmp oeq double %5, 0x7FF0000000000000
  br i1 %6, label %16, label %7

7:                                                ; preds = %2
  %8 = load double, ptr %3, align 8, !tbaa !10
  %9 = fcmp oeq double %8, 0xFFF0000000000000
  br i1 %9, label %16, label %10

10:                                               ; preds = %7
  %11 = load double, ptr %4, align 8, !tbaa !10
  %12 = fcmp oeq double %11, 0x7FF0000000000000
  br i1 %12, label %16, label %13

13:                                               ; preds = %10
  %14 = load double, ptr %4, align 8, !tbaa !10
  %15 = fcmp oeq double %14, 0xFFF0000000000000
  br i1 %15, label %16, label %23

16:                                               ; preds = %13, %10, %7, %2
  %17 = call ptr @__errno_location() #11
  %18 = load i32, ptr %17, align 4, !tbaa !12
  %19 = icmp eq i32 %18, 0
  br i1 %19, label %20, label %22

20:                                               ; preds = %16
  %21 = call ptr @__errno_location() #11
  store i32 34, ptr %21, align 4, !tbaa !12
  br label %22

22:                                               ; preds = %20, %16
  br label %30

23:                                               ; preds = %13
  %24 = call ptr @__errno_location() #11
  %25 = load i32, ptr %24, align 4, !tbaa !12
  %26 = icmp eq i32 %25, 34
  br i1 %26, label %27, label %29

27:                                               ; preds = %23
  %28 = call ptr @__errno_location() #11
  store i32 0, ptr %28, align 4, !tbaa !12
  br label %29

29:                                               ; preds = %27, %23
  br label %30

30:                                               ; preds = %29, %22
  ret void
}

; Function Attrs: nounwind uwtable
define dso_local { double, double } @_Py_c_pow(double %0, double %1, double %2, double %3) #0 {
  %5 = alloca %struct.Py_complex, align 8
  %6 = alloca %struct.Py_complex, align 8
  %7 = alloca %struct.Py_complex, align 8
  %8 = alloca double, align 8
  %9 = alloca double, align 8
  %10 = alloca double, align 8
  %11 = alloca double, align 8
  %12 = getelementptr inbounds nuw { double, double }, ptr %6, i32 0, i32 0
  store double %0, ptr %12, align 8
  %13 = getelementptr inbounds nuw { double, double }, ptr %6, i32 0, i32 1
  store double %1, ptr %13, align 8
  %14 = getelementptr inbounds nuw { double, double }, ptr %7, i32 0, i32 0
  store double %2, ptr %14, align 8
  %15 = getelementptr inbounds nuw { double, double }, ptr %7, i32 0, i32 1
  store double %3, ptr %15, align 8
  call void @llvm.lifetime.start.p0(i64 8, ptr %8) #9
  call void @llvm.lifetime.start.p0(i64 8, ptr %9) #9
  call void @llvm.lifetime.start.p0(i64 8, ptr %10) #9
  call void @llvm.lifetime.start.p0(i64 8, ptr %11) #9
  %16 = getelementptr inbounds nuw %struct.Py_complex, ptr %7, i32 0, i32 0
  %17 = load double, ptr %16, align 8, !tbaa !4
  %18 = fcmp oeq double %17, 0.000000e+00
  br i1 %18, label %19, label %26

19:                                               ; preds = %4
  %20 = getelementptr inbounds nuw %struct.Py_complex, ptr %7, i32 0, i32 1
  %21 = load double, ptr %20, align 8, !tbaa !9
  %22 = fcmp oeq double %21, 0.000000e+00
  br i1 %22, label %23, label %26

23:                                               ; preds = %19
  %24 = getelementptr inbounds nuw %struct.Py_complex, ptr %5, i32 0, i32 0
  store double 1.000000e+00, ptr %24, align 8, !tbaa !4
  %25 = getelementptr inbounds nuw %struct.Py_complex, ptr %5, i32 0, i32 1
  store double 0.000000e+00, ptr %25, align 8, !tbaa !9
  br label %100

26:                                               ; preds = %19, %4
  %27 = getelementptr inbounds nuw %struct.Py_complex, ptr %6, i32 0, i32 0
  %28 = load double, ptr %27, align 8, !tbaa !4
  %29 = fcmp oeq double %28, 0.000000e+00
  br i1 %29, label %30, label %47

30:                                               ; preds = %26
  %31 = getelementptr inbounds nuw %struct.Py_complex, ptr %6, i32 0, i32 1
  %32 = load double, ptr %31, align 8, !tbaa !9
  %33 = fcmp oeq double %32, 0.000000e+00
  br i1 %33, label %34, label %47

34:                                               ; preds = %30
  %35 = getelementptr inbounds nuw %struct.Py_complex, ptr %7, i32 0, i32 1
  %36 = load double, ptr %35, align 8, !tbaa !9
  %37 = fcmp une double %36, 0.000000e+00
  br i1 %37, label %42, label %38

38:                                               ; preds = %34
  %39 = getelementptr inbounds nuw %struct.Py_complex, ptr %7, i32 0, i32 0
  %40 = load double, ptr %39, align 8, !tbaa !4
  %41 = fcmp olt double %40, 0.000000e+00
  br i1 %41, label %42, label %44

42:                                               ; preds = %38, %34
  %43 = call ptr @__errno_location() #11
  store i32 33, ptr %43, align 4, !tbaa !12
  br label %44

44:                                               ; preds = %42, %38
  %45 = getelementptr inbounds nuw %struct.Py_complex, ptr %5, i32 0, i32 0
  store double 0.000000e+00, ptr %45, align 8, !tbaa !4
  %46 = getelementptr inbounds nuw %struct.Py_complex, ptr %5, i32 0, i32 1
  store double 0.000000e+00, ptr %46, align 8, !tbaa !9
  br label %99

47:                                               ; preds = %30, %26
  %48 = getelementptr inbounds nuw %struct.Py_complex, ptr %6, i32 0, i32 0
  %49 = load double, ptr %48, align 8, !tbaa !4
  %50 = getelementptr inbounds nuw %struct.Py_complex, ptr %6, i32 0, i32 1
  %51 = load double, ptr %50, align 8, !tbaa !9
  %52 = call double @hypot(double noundef %49, double noundef %51) #9, !tbaa !12
  store double %52, ptr %8, align 8, !tbaa !10
  %53 = load double, ptr %8, align 8, !tbaa !10
  %54 = getelementptr inbounds nuw %struct.Py_complex, ptr %7, i32 0, i32 0
  %55 = load double, ptr %54, align 8, !tbaa !4
  %56 = call double @pow(double noundef %53, double noundef %55) #9, !tbaa !12
  store double %56, ptr %9, align 8, !tbaa !10
  %57 = getelementptr inbounds nuw %struct.Py_complex, ptr %6, i32 0, i32 1
  %58 = load double, ptr %57, align 8, !tbaa !9
  %59 = getelementptr inbounds nuw %struct.Py_complex, ptr %6, i32 0, i32 0
  %60 = load double, ptr %59, align 8, !tbaa !4
  %61 = call double @atan2(double noundef %58, double noundef %60) #9, !tbaa !12
  store double %61, ptr %10, align 8, !tbaa !10
  %62 = load double, ptr %10, align 8, !tbaa !10
  %63 = getelementptr inbounds nuw %struct.Py_complex, ptr %7, i32 0, i32 0
  %64 = load double, ptr %63, align 8, !tbaa !4
  %65 = fmul double %62, %64
  store double %65, ptr %11, align 8, !tbaa !10
  %66 = getelementptr inbounds nuw %struct.Py_complex, ptr %7, i32 0, i32 1
  %67 = load double, ptr %66, align 8, !tbaa !9
  %68 = fcmp une double %67, 0.000000e+00
  br i1 %68, label %69, label %84

69:                                               ; preds = %47
  %70 = load double, ptr %10, align 8, !tbaa !10
  %71 = fneg double %70
  %72 = getelementptr inbounds nuw %struct.Py_complex, ptr %7, i32 0, i32 1
  %73 = load double, ptr %72, align 8, !tbaa !9
  %74 = fmul double %71, %73
  %75 = call double @exp(double noundef %74) #9, !tbaa !12
  %76 = load double, ptr %9, align 8, !tbaa !10
  %77 = fmul double %76, %75
  store double %77, ptr %9, align 8, !tbaa !10
  %78 = getelementptr inbounds nuw %struct.Py_complex, ptr %7, i32 0, i32 1
  %79 = load double, ptr %78, align 8, !tbaa !9
  %80 = load double, ptr %8, align 8, !tbaa !10
  %81 = call double @log(double noundef %80) #9, !tbaa !12
  %82 = load double, ptr %11, align 8, !tbaa !10
  %83 = call double @llvm.fmuladd.f64(double %79, double %81, double %82)
  store double %83, ptr %11, align 8, !tbaa !10
  br label %84

84:                                               ; preds = %69, %47
  %85 = load double, ptr %9, align 8, !tbaa !10
  %86 = load double, ptr %11, align 8, !tbaa !10
  %87 = call double @cos(double noundef %86) #9, !tbaa !12
  %88 = fmul double %85, %87
  %89 = getelementptr inbounds nuw %struct.Py_complex, ptr %5, i32 0, i32 0
  store double %88, ptr %89, align 8, !tbaa !4
  %90 = load double, ptr %9, align 8, !tbaa !10
  %91 = load double, ptr %11, align 8, !tbaa !10
  %92 = call double @sin(double noundef %91) #9, !tbaa !12
  %93 = fmul double %90, %92
  %94 = getelementptr inbounds nuw %struct.Py_complex, ptr %5, i32 0, i32 1
  store double %93, ptr %94, align 8, !tbaa !9
  %95 = getelementptr inbounds nuw %struct.Py_complex, ptr %5, i32 0, i32 0
  %96 = load double, ptr %95, align 8, !tbaa !4
  %97 = getelementptr inbounds nuw %struct.Py_complex, ptr %5, i32 0, i32 1
  %98 = load double, ptr %97, align 8, !tbaa !9
  call void @_Py_ADJUST_ERANGE2(double noundef %96, double noundef %98)
  br label %99

99:                                               ; preds = %84, %44
  br label %100

100:                                              ; preds = %99, %23
  call void @llvm.lifetime.end.p0(i64 8, ptr %11) #9
  call void @llvm.lifetime.end.p0(i64 8, ptr %10) #9
  call void @llvm.lifetime.end.p0(i64 8, ptr %9) #9
  call void @llvm.lifetime.end.p0(i64 8, ptr %8) #9
  %101 = load { double, double }, ptr %5, align 8
  ret { double, double } %101
}