; Function Attrs: mustprogress nofree nounwind willreturn memory(readwrite, inaccessiblemem: write) uwtable
define dso_local { double, double } @_Py_c_pow(double %0, double %1, double %2, double %3) local_unnamed_addr #6 {
  %5 = fcmp oeq double %2, 0.000000e+00
  %6 = fcmp oeq double %3, 0.000000e+00
  %or.cond = select i1 %5, i1 %6, i1 false
  br i1 %or.cond, label %_Py_ADJUST_ERANGE2.exit, label %7

7:                                                ; preds = %4
  %8 = fcmp oeq double %0, 0.000000e+00
  %9 = fcmp oeq double %1, 0.000000e+00
  %or.cond5 = select i1 %8, i1 %9, i1 false
  br i1 %or.cond5, label %10, label %15

10:                                               ; preds = %7
  %11 = fcmp une double %3, 0.000000e+00
  %12 = fcmp olt double %2, 0.000000e+00
  %or.cond8 = or i1 %12, %11
  br i1 %or.cond8, label %13, label %_Py_ADJUST_ERANGE2.exit

13:                                               ; preds = %10
  %14 = tail call ptr @__errno_location() #15
  store i32 33, ptr %14, align 4, !tbaa !4
  br label %_Py_ADJUST_ERANGE2.exit

15:                                               ; preds = %7
  %16 = tail call double @hypot(double noundef %0, double noundef %1) #16, !tbaa !4
  %17 = tail call double @pow(double noundef %16, double noundef %2) #16, !tbaa !4
  %18 = tail call double @atan2(double noundef %1, double noundef %0) #16, !tbaa !4
  %19 = fmul double %2, %18
  %20 = fcmp une double %3, 0.000000e+00
  br i1 %20, label %21, label %28

21:                                               ; preds = %15
  %22 = fneg double %18
  %23 = fmul double %3, %22
  %24 = tail call double @exp(double noundef %23) #16, !tbaa !4
  %25 = fmul double %17, %24
  %26 = tail call double @log(double noundef %16) #16, !tbaa !4
  %27 = tail call double @llvm.fmuladd.f64(double %3, double %26, double %19)
  br label %28

28:                                               ; preds = %21, %15
  %.032 = phi double [ %25, %21 ], [ %17, %15 ]
  %.0 = phi double [ %27, %21 ], [ %19, %15 ]
  %29 = tail call double @cos(double noundef %.0) #16, !tbaa !4
  %30 = fmul double %.032, %29
  %31 = tail call double @sin(double noundef %.0) #16, !tbaa !4
  %32 = fmul double %.032, %31
  %33 = tail call double @llvm.fabs.f64(double %30)
  %or.cond.i = fcmp oeq double %33, 0x7FF0000000000000
  %34 = tail call double @llvm.fabs.f64(double %32)
  %35 = fcmp oeq double %34, 0x7FF0000000000000
  %or.cond5.i = or i1 %or.cond.i, %35
  %36 = tail call ptr @__errno_location() #15
  %37 = load i32, ptr %36, align 4, !tbaa !4
  br i1 %or.cond5.i, label %38, label %40

38:                                               ; preds = %28
  %39 = icmp eq i32 %37, 0
  br i1 %39, label %.sink.split.i, label %_Py_ADJUST_ERANGE2.exit

40:                                               ; preds = %28
  %41 = icmp eq i32 %37, 34
  br i1 %41, label %.sink.split.i, label %_Py_ADJUST_ERANGE2.exit

.sink.split.i:                                    ; preds = %40, %38
  %.sink.i = phi i32 [ 34, %38 ], [ 0, %40 ]
  store i32 %.sink.i, ptr %36, align 4, !tbaa !4
  br label %_Py_ADJUST_ERANGE2.exit

_Py_ADJUST_ERANGE2.exit:                          ; preds = %.sink.split.i, %40, %38, %13, %10, %4
  %.sroa.030.0 = phi double [ 1.000000e+00, %4 ], [ 0.000000e+00, %10 ], [ 0.000000e+00, %13 ], [ %30, %38 ], [ %30, %40 ], [ %30, %.sink.split.i ]
  %.sroa.531.0 = phi double [ 0.000000e+00, %4 ], [ 0.000000e+00, %10 ], [ 0.000000e+00, %13 ], [ %32, %38 ], [ %32, %40 ], [ %32, %.sink.split.i ]
  %.fca.0.insert = insertvalue { double, double } poison, double %.sroa.030.0, 0
  %.fca.1.insert = insertvalue { double, double } %.fca.0.insert, double %.sroa.531.0, 1
  ret { double, double } %.fca.1.insert
}